target datalayout = "e-m:e-p270:32:32-p271:32:32-p272:64:64-i64:64-i128:128-f80:128-n8:16:32:64-S128"
target triple = "x86_64-pc-linux-gnu"

%struct.PyVarObject = type { %struct._object, i64 }
%struct._object = type { i64, ptr }
%struct._longobject = type { %struct.PyVarObject, [1 x i32] }
%struct.py_annoy = type { %struct._object, i32, ptr }

@.str.38 = private unnamed_addr constant [4 x i8] c"s|b\00", align 1
@PyExc_IOError = external global ptr, align 8
@_Py_TrueStruct = external global %struct._longobject, align 8
@_ZZL10py_an_saveP8py_annoyP7_objectS2_E6kwlist = internal global [3 x ptr] [ptr @.str.36, ptr @.str.37, ptr null], align 16

; Function Attrs: inlinehint mustprogress nounwind sspstrong uwtable
define internal void @_ZL10_Py_INCREFP7_object(ptr noundef %0) #6 {
  %2 = alloca ptr, align 8
  store ptr %0, ptr %2, align 8, !tbaa !14
  %3 = load ptr, ptr %2, align 8, !tbaa !14
  %4 = getelementptr inbounds nuw %struct._object, ptr %3, i32 0, i32 0
  %5 = load i64, ptr %4, align 8, !tbaa !45
  %6 = add i64 %5, 1
  store i64 %6, ptr %4, align 8, !tbaa !45
  ret void
}

; Function Attrs: inlinehint mustprogress sspstrong uwtable
define internal noundef ptr @_ZL10_Py_NewRefP7_object(ptr noundef %0) #5 {
  %2 = alloca ptr, align 8
  store ptr %0, ptr %2, align 8, !tbaa !14
  %3 = load ptr, ptr %2, align 8, !tbaa !14
  call void @_ZL10_Py_INCREFP7_object(ptr noundef %3)
  %4 = load ptr, ptr %2, align 8, !tbaa !14
  ret ptr %4
}

; Function Attrs: mustprogress sspstrong uwtable
define internal noundef ptr @_ZL10py_an_saveP8py_annoyP7_objectS2_(ptr noundef %0, ptr noundef %1, ptr noundef %2) #2 {
  %4 = alloca ptr, align 8
  %5 = alloca ptr, align 8
  %6 = alloca ptr, align 8
  %7 = alloca ptr, align 8
  %8 = alloca ptr, align 8
  %9 = alloca ptr, align 8
  %10 = alloca i8, align 1
  %11 = alloca i32, align 4
  store ptr %0, ptr %5, align 8, !tbaa !31
  store ptr %1, ptr %6, align 8, !tbaa !14
  store ptr %2, ptr %7, align 8, !tbaa !14
  call void @llvm.lifetime.start.p0(i64 8, ptr %8) #28
  call void @llvm.lifetime.start.p0(i64 8, ptr %9) #28
  call void @llvm.lifetime.start.p0(i64 1, ptr %10) #28
  store i8 0, ptr %10, align 1, !tbaa !32
  %12 = load ptr, ptr %5, align 8, !tbaa !31
  %13 = getelementptr inbounds nuw %struct.py_annoy, ptr %12, i32 0, i32 2
  %14 = load ptr, ptr %13, align 8, !tbaa !36
  %15 = icmp ne ptr %14, null
  br i1 %15, label %17, label %16

16:                                               ; preds = %3
  store ptr null, ptr %4, align 8
  store i32 1, ptr %11, align 4
  br label %40

17:                                               ; preds = %3
  %18 = load ptr, ptr %6, align 8, !tbaa !14
  %19 = load ptr, ptr %7, align 8, !tbaa !14
  %20 = call i32 (ptr, ptr, ptr, ptr, ...) @PyArg_ParseTupleAndKeywords(ptr noundef %18, ptr noundef %19, ptr noundef @.str.38, ptr noundef @_ZZL10py_an_saveP8py_annoyP7_objectS2_E6kwlist, ptr noundef %8, ptr noundef %10)
  %21 = icmp ne i32 %20, 0
  br i1 %21, label %23, label %22

22:                                               ; preds = %17
  store ptr null, ptr %4, align 8
  store i32 1, ptr %11, align 4
  br label %40

23:                                               ; preds = %17
  %24 = load ptr, ptr %5, align 8, !tbaa !31
  %25 = getelementptr inbounds nuw %struct.py_annoy, ptr %24, i32 0, i32 2
  %26 = load ptr, ptr %25, align 8, !tbaa !36
  %27 = load ptr, ptr %8, align 8, !tbaa !54
  %28 = load i8, ptr %10, align 1, !tbaa !32, !range !34, !noundef !35
  %29 = trunc i8 %28 to i1
  %30 = load ptr, ptr %26, align 8, !tbaa !40
  %31 = getelementptr inbounds ptr, ptr %30, i64 5
  %32 = load ptr, ptr %31, align 8
  %33 = call noundef zeroext i1 %32(ptr noundef nonnull align 8 dereferenceable(8) %26, ptr noundef %27, i1 noundef zeroext %29, ptr noundef %9)
  br i1 %33, label %38, label %34

34:                                               ; preds = %23
  %35 = load ptr, ptr @PyExc_IOError, align 8, !tbaa !14
  %36 = load ptr, ptr %9, align 8, !tbaa !54
  call void @PyErr_SetString(ptr noundef %35, ptr noundef %36)
  %37 = load ptr, ptr %9, align 8, !tbaa !54
  call void @free(ptr noundef %37) #28
  store ptr null, ptr %4, align 8
  store i32 1, ptr %11, align 4
  br label %40

38:                                               ; preds = %23
  %39 = call noundef ptr @_ZL10_Py_NewRefP7_object(ptr noundef @_Py_TrueStruct)
  store ptr %39, ptr %4, align 8
  store i32 1, ptr %11, align 4
  br label %40

40:                                               ; preds = %38, %34, %22, %16
  call void @llvm.lifetime.end.p0(i64 1, ptr %10) #28
  call void @llvm.lifetime.end.p0(i64 8, ptr %9) #28
  call void @llvm.lifetime.end.p0(i64 8, ptr %8) #28
  %41 = load ptr, ptr %4, align 8
  ret ptr %41
}